target datalayout = "e-m:e-p270:32:32-p271:32:32-p272:64:64-i64:64-i128:128-f80:128-n8:16:32:64-S128"
target triple = "x86_64-pc-linux-gnu"

%struct.grpc_slice = type { ptr, %"union.grpc_slice::grpc_slice_data" }
%"union.grpc_slice::grpc_slice_data" = type { %"struct.grpc_slice::grpc_slice_data::grpc_slice_refcounted", [8 x i8] }
%"struct.grpc_slice::grpc_slice_data::grpc_slice_refcounted" = type { i64, ptr }
%struct.grpc_slice_buffer = type { ptr, ptr, i64, i64, i64, [6 x %struct.grpc_slice] }
%"struct.grpc_slice::grpc_slice_data::grpc_slice_inlined" = type { i8, [23 x i8] }

; Function Attrs: mustprogress uwtable
define internal void @_ZL14maybe_embiggenP17grpc_slice_buffer(ptr noundef %0) #4 {
  %2 = alloca ptr, align 8
  %3 = alloca i64, align 8
  %4 = alloca i64, align 8
  store ptr %0, ptr %2, align 8, !tbaa !10
  %5 = load ptr, ptr %2, align 8, !tbaa !10
  %6 = getelementptr inbounds nuw %struct.grpc_slice_buffer, ptr %5, i32 0, i32 2
  %7 = load i64, ptr %6, align 8, !tbaa !12
  %8 = icmp eq i64 %7, 0
  br i1 %8, label %9, label %15

9:                                                ; preds = %1
  %10 = load ptr, ptr %2, align 8, !tbaa !10
  %11 = getelementptr inbounds nuw %struct.grpc_slice_buffer, ptr %10, i32 0, i32 0
  %12 = load ptr, ptr %11, align 8, !tbaa !54
  %13 = load ptr, ptr %2, align 8, !tbaa !10
  %14 = getelementptr inbounds nuw %struct.grpc_slice_buffer, ptr %13, i32 0, i32 1
  store ptr %12, ptr %14, align 8, !tbaa !18
  br label %44

15:                                               ; preds = %1
  call void @llvm.lifetime.start.p0(i64 8, ptr %3) #3
  %16 = load ptr, ptr %2, align 8, !tbaa !10
  %17 = getelementptr inbounds nuw %struct.grpc_slice_buffer, ptr %16, i32 0, i32 1
  %18 = load ptr, ptr %17, align 8, !tbaa !18
  %19 = load ptr, ptr %2, align 8, !tbaa !10
  %20 = getelementptr inbounds nuw %struct.grpc_slice_buffer, ptr %19, i32 0, i32 0
  %21 = load ptr, ptr %20, align 8, !tbaa !54
  %22 = ptrtoint ptr %18 to i64
  %23 = ptrtoint ptr %21 to i64
  %24 = sub i64 %22, %23
  %25 = sdiv exact i64 %24, 32
  store i64 %25, ptr %3, align 8, !tbaa !16
  call void @llvm.lifetime.start.p0(i64 8, ptr %4) #3
  %26 = load ptr, ptr %2, align 8, !tbaa !10
  %27 = getelementptr inbounds nuw %struct.grpc_slice_buffer, ptr %26, i32 0, i32 2
  %28 = load i64, ptr %27, align 8, !tbaa !12
  %29 = load i64, ptr %3, align 8, !tbaa !16
  %30 = add i64 %28, %29
  store i64 %30, ptr %4, align 8, !tbaa !16
  %31 = load i64, ptr %4, align 8, !tbaa !16
  %32 = load ptr, ptr %2, align 8, !tbaa !10
  %33 = getelementptr inbounds nuw %struct.grpc_slice_buffer, ptr %32, i32 0, i32 3
  %34 = load i64, ptr %33, align 8, !tbaa !53
  %35 = icmp eq i64 %31, %34
  %36 = zext i1 %35 to i64
  %37 = call i64 @llvm.expect.i64(i64 %36, i64 0)
  %38 = icmp ne i64 %37, 0
  br i1 %38, label %39, label %43

39:                                               ; preds = %15
  %40 = load ptr, ptr %2, align 8, !tbaa !10
  %41 = load i64, ptr %4, align 8, !tbaa !16
  %42 = load i64, ptr %3, align 8, !tbaa !16
  call void @_ZL11do_embiggenP17grpc_slice_buffermm(ptr noundef %40, i64 noundef %41, i64 noundef %42)
  br label %43

43:                                               ; preds = %39, %15
  call void @llvm.lifetime.end.p0(i64 8, ptr %4) #3
  call void @llvm.lifetime.end.p0(i64 8, ptr %3) #3
  br label %44

44:                                               ; preds = %43, %9
  ret void
}

; Function Attrs: mustprogress uwtable
define i64 @grpc_slice_buffer_add_indexed(ptr noundef %0, ptr noundef byval(%struct.grpc_slice) align 8 %1) #4 {
  %3 = alloca ptr, align 8
  %4 = alloca i64, align 8
  store ptr %0, ptr %3, align 8, !tbaa !10
  call void @llvm.lifetime.start.p0(i64 8, ptr %4) #3
  %5 = load ptr, ptr %3, align 8, !tbaa !10
  %6 = getelementptr inbounds nuw %struct.grpc_slice_buffer, ptr %5, i32 0, i32 2
  %7 = load i64, ptr %6, align 8, !tbaa !12
  store i64 %7, ptr %4, align 8, !tbaa !16
  %8 = load ptr, ptr %3, align 8, !tbaa !10
  call void @_ZL14maybe_embiggenP17grpc_slice_buffer(ptr noundef %8)
  %9 = load ptr, ptr %3, align 8, !tbaa !10
  %10 = getelementptr inbounds nuw %struct.grpc_slice_buffer, ptr %9, i32 0, i32 1
  %11 = load ptr, ptr %10, align 8, !tbaa !18
  %12 = load i64, ptr %4, align 8, !tbaa !16
  %13 = getelementptr inbounds nuw %struct.grpc_slice, ptr %11, i64 %12
  call void @llvm.memcpy.p0.p0.i64(ptr align 8 %13, ptr align 8 %1, i64 32, i1 false), !tbaa.struct !24
  %14 = getelementptr inbounds nuw %struct.grpc_slice, ptr %1, i32 0, i32 0
  %15 = load ptr, ptr %14, align 8, !tbaa !19
  %16 = icmp ne ptr %15, null
  br i1 %16, label %17, label %21

17:                                               ; preds = %2
  %18 = getelementptr inbounds nuw %struct.grpc_slice, ptr %1, i32 0, i32 1
  %19 = getelementptr inbounds nuw %"struct.grpc_slice::grpc_slice_data::grpc_slice_refcounted", ptr %18, i32 0, i32 0
  %20 = load i64, ptr %19, align 8, !tbaa !22
  br label %26

21:                                               ; preds = %2
  %22 = getelementptr inbounds nuw %struct.grpc_slice, ptr %1, i32 0, i32 1
  %23 = getelementptr inbounds nuw %"struct.grpc_slice::grpc_slice_data::grpc_slice_inlined", ptr %22, i32 0, i32 0
  %24 = load i8, ptr %23, align 8, !tbaa !22
  %25 = zext i8 %24 to i64
  br label %26

26:                                               ; preds = %21, %17
  %27 = phi i64 [ %20, %17 ], [ %25, %21 ]
  %28 = load ptr, ptr %3, align 8, !tbaa !10
  %29 = getelementptr inbounds nuw %struct.grpc_slice_buffer, ptr %28, i32 0, i32 4
  %30 = load i64, ptr %29, align 8, !tbaa !23
  %31 = add i64 %30, %27
  store i64 %31, ptr %29, align 8, !tbaa !23
  %32 = load i64, ptr %4, align 8, !tbaa !16
  %33 = add i64 %32, 1
  %34 = load ptr, ptr %3, align 8, !tbaa !10
  %35 = getelementptr inbounds nuw %struct.grpc_slice_buffer, ptr %34, i32 0, i32 2
  store i64 %33, ptr %35, align 8, !tbaa !12
  %36 = load i64, ptr %4, align 8, !tbaa !16
  call void @llvm.lifetime.end.p0(i64 8, ptr %4) #3
  ret i64 %36
}