; Function Attrs: mustprogress uwtable
define i64 @grpc_slice_buffer_add_indexed(ptr noundef %0, ptr noundef readonly byval(%struct.grpc_slice) align 8 captures(none) %1) local_unnamed_addr #3 {
  %3 = getelementptr inbounds nuw i8, ptr %0, i64 16
  %4 = load i64, ptr %3, align 8, !tbaa !13
  %5 = icmp eq i64 %4, 0
  br i1 %5, label %6, label %9

6:                                                ; preds = %2
  %7 = load ptr, ptr %0, align 8, !tbaa !25
  %8 = getelementptr inbounds nuw i8, ptr %0, i64 8
  store ptr %7, ptr %8, align 8, !tbaa !17
  br label %_ZL14maybe_embiggenP17grpc_slice_buffer.exit

9:                                                ; preds = %2
  %10 = getelementptr inbounds nuw i8, ptr %0, i64 8
  %11 = load ptr, ptr %10, align 8, !tbaa !17
  %12 = load ptr, ptr %0, align 8, !tbaa !25
  %13 = ptrtoint ptr %11 to i64
  %14 = ptrtoint ptr %12 to i64
  %15 = sub i64 %13, %14
  %16 = ashr exact i64 %15, 5
  %17 = add i64 %16, %4
  %18 = getelementptr inbounds nuw i8, ptr %0, i64 24
  %19 = load i64, ptr %18, align 8, !tbaa !26
  %20 = icmp eq i64 %17, %19
  br i1 %20, label %21, label %_ZL14maybe_embiggenP17grpc_slice_buffer.exit, !prof !27

21:                                               ; preds = %9
  tail call fastcc void @_ZL11do_embiggenP17grpc_slice_buffermm(ptr noundef nonnull %0, i64 noundef %17, i64 noundef %16)
  %.pre = load ptr, ptr %10, align 8, !tbaa !17
  br label %_ZL14maybe_embiggenP17grpc_slice_buffer.exit

_ZL14maybe_embiggenP17grpc_slice_buffer.exit:     ; preds = %6, %9, %21
  %22 = phi ptr [ %7, %6 ], [ %11, %9 ], [ %.pre, %21 ]
  %23 = getelementptr inbounds nuw %struct.grpc_slice, ptr %22, i64 %4
  call void @llvm.memcpy.p0.p0.i64(ptr noundef nonnull align 8 dereferenceable(32) %23, ptr noundef nonnull align 8 dereferenceable(32) %1, i64 32, i1 false), !tbaa.struct !3
  %24 = load ptr, ptr %1, align 8, !tbaa !18
  %.not = icmp eq ptr %24, null
  %25 = getelementptr inbounds nuw i8, ptr %1, i64 8
  %26 = load i64, ptr %25, align 8
  %27 = and i64 %26, 255
  %28 = select i1 %.not, i64 %27, i64 %26
  %29 = getelementptr inbounds nuw i8, ptr %0, i64 32
  %30 = load i64, ptr %29, align 8, !tbaa !20
  %31 = add i64 %28, %30
  store i64 %31, ptr %29, align 8, !tbaa !20
  %32 = add i64 %4, 1
  store i64 %32, ptr %3, align 8, !tbaa !13
  ret i64 %4
}